target datalayout = "e-m:e-p270:32:32-p271:32:32-p272:64:64-i64:64-i128:128-f80:128-n8:16:32:64-S128"
target triple = "x86_64-pc-linux-gnu"

%struct.Abc_TtStore_t_ = type { i32, i32, i32, ptr }

@.str = private unnamed_addr constant [3 x i8] c"rb\00", align 1
@.str.1 = private unnamed_addr constant [36 x i8] c"Cannot open file \22%s\22 for reading.\0A\00", align 1
@.str.8 = private unnamed_addr constant [81 x i8] c"The file size (%d) is divided by the truth table size (%d) with remainder (%d).\0A\00", align 1

; Function Attrs: nounwind uwtable
define ptr @Abc_TruthStoreAlloc2(i32 noundef %0, i32 noundef %1, ptr noundef %2) #0 {
  %4 = alloca i32, align 4
  %5 = alloca i32, align 4
  %6 = alloca ptr, align 8
  %7 = alloca ptr, align 8
  %8 = alloca i32, align 4
  store i32 %0, ptr %4, align 4, !tbaa !10
  store i32 %1, ptr %5, align 4, !tbaa !10
  store ptr %2, ptr %6, align 8, !tbaa !3
  call void @llvm.lifetime.start.p0(i64 8, ptr %7) #12
  call void @llvm.lifetime.start.p0(i64 4, ptr %8) #12
  %9 = call noalias ptr @malloc(i64 noundef 24) #13
  store ptr %9, ptr %7, align 8, !tbaa !20
  %10 = load i32, ptr %4, align 4, !tbaa !10
  %11 = load ptr, ptr %7, align 8, !tbaa !20
  %12 = getelementptr inbounds nuw %struct.Abc_TtStore_t_, ptr %11, i32 0, i32 0
  store i32 %10, ptr %12, align 8, !tbaa !22
  %13 = load i32, ptr %4, align 4, !tbaa !10
  %14 = icmp slt i32 %13, 7
  br i1 %14, label %15, label %16

15:                                               ; preds = %3
  br label %20

16:                                               ; preds = %3
  %17 = load i32, ptr %4, align 4, !tbaa !10
  %18 = sub nsw i32 %17, 6
  %19 = shl i32 1, %18
  br label %20

20:                                               ; preds = %16, %15
  %21 = phi i32 [ 1, %15 ], [ %19, %16 ]
  %22 = load ptr, ptr %7, align 8, !tbaa !20
  %23 = getelementptr inbounds nuw %struct.Abc_TtStore_t_, ptr %22, i32 0, i32 1
  store i32 %21, ptr %23, align 4, !tbaa !25
  %24 = load i32, ptr %5, align 4, !tbaa !10
  %25 = load ptr, ptr %7, align 8, !tbaa !20
  %26 = getelementptr inbounds nuw %struct.Abc_TtStore_t_, ptr %25, i32 0, i32 2
  store i32 %24, ptr %26, align 8, !tbaa !26
  %27 = load ptr, ptr %7, align 8, !tbaa !20
  %28 = getelementptr inbounds nuw %struct.Abc_TtStore_t_, ptr %27, i32 0, i32 2
  %29 = load i32, ptr %28, align 8, !tbaa !26
  %30 = sext i32 %29 to i64
  %31 = mul i64 8, %30
  %32 = call noalias ptr @malloc(i64 noundef %31) #13
  %33 = load ptr, ptr %7, align 8, !tbaa !20
  %34 = getelementptr inbounds nuw %struct.Abc_TtStore_t_, ptr %33, i32 0, i32 3
  store ptr %32, ptr %34, align 8, !tbaa !27
  %35 = load ptr, ptr %6, align 8, !tbaa !3
  %36 = load ptr, ptr %7, align 8, !tbaa !20
  %37 = getelementptr inbounds nuw %struct.Abc_TtStore_t_, ptr %36, i32 0, i32 3
  %38 = load ptr, ptr %37, align 8, !tbaa !27
  %39 = getelementptr inbounds ptr, ptr %38, i64 0
  store ptr %35, ptr %39, align 8, !tbaa !3
  store i32 1, ptr %8, align 4, !tbaa !10
  br label %40

40:                                               ; preds = %66, %20
  %41 = load i32, ptr %8, align 4, !tbaa !10
  %42 = load ptr, ptr %7, align 8, !tbaa !20
  %43 = getelementptr inbounds nuw %struct.Abc_TtStore_t_, ptr %42, i32 0, i32 2
  %44 = load i32, ptr %43, align 8, !tbaa !26
  %45 = icmp slt i32 %41, %44
  br i1 %45, label %46, label %69

46:                                               ; preds = %40
  %47 = load ptr, ptr %7, align 8, !tbaa !20
  %48 = getelementptr inbounds nuw %struct.Abc_TtStore_t_, ptr %47, i32 0, i32 3
  %49 = load ptr, ptr %48, align 8, !tbaa !27
  %50 = load i32, ptr %8, align 4, !tbaa !10
  %51 = sub nsw i32 %50, 1
  %52 = sext i32 %51 to i64
  %53 = getelementptr inbounds ptr, ptr %49, i64 %52
  %54 = load ptr, ptr %53, align 8, !tbaa !3
  %55 = load ptr, ptr %7, align 8, !tbaa !20
  %56 = getelementptr inbounds nuw %struct.Abc_TtStore_t_, ptr %55, i32 0, i32 1
  %57 = load i32, ptr %56, align 4, !tbaa !25
  %58 = sext i32 %57 to i64
  %59 = getelementptr inbounds i64, ptr %54, i64 %58
  %60 = load ptr, ptr %7, align 8, !tbaa !20
  %61 = getelementptr inbounds nuw %struct.Abc_TtStore_t_, ptr %60, i32 0, i32 3
  %62 = load ptr, ptr %61, align 8, !tbaa !27
  %63 = load i32, ptr %8, align 4, !tbaa !10
  %64 = sext i32 %63 to i64
  %65 = getelementptr inbounds ptr, ptr %62, i64 %64
  store ptr %59, ptr %65, align 8, !tbaa !3
  br label %66

66:                                               ; preds = %46
  %67 = load i32, ptr %8, align 4, !tbaa !10
  %68 = add nsw i32 %67, 1
  store i32 %68, ptr %8, align 4, !tbaa !10
  br label %40, !llvm.loop !29

69:                                               ; preds = %40
  %70 = load ptr, ptr %7, align 8, !tbaa !20
  call void @llvm.lifetime.end.p0(i64 4, ptr %8) #12
  call void @llvm.lifetime.end.p0(i64 8, ptr %7) #12
  ret ptr %70
}

; Function Attrs: nounwind uwtable
define i32 @Abc_FileSize(ptr noundef %0) #0 {
  %2 = alloca i32, align 4
  %3 = alloca ptr, align 8
  %4 = alloca ptr, align 8
  %5 = alloca i32, align 4
  %6 = alloca i32, align 4
  store ptr %0, ptr %3, align 8, !tbaa !8
  call void @llvm.lifetime.start.p0(i64 8, ptr %4) #12
  call void @llvm.lifetime.start.p0(i64 4, ptr %5) #12
  %7 = load ptr, ptr %3, align 8, !tbaa !8
  %8 = call noalias ptr @fopen(ptr noundef %7, ptr noundef @.str)
  store ptr %8, ptr %4, align 8, !tbaa !17
  %9 = load ptr, ptr %4, align 8, !tbaa !17
  %10 = icmp eq ptr %9, null
  br i1 %10, label %11, label %14

11:                                               ; preds = %1
  %12 = load ptr, ptr %3, align 8, !tbaa !8
  %13 = call i32 (ptr, ...) @printf(ptr noundef @.str.1, ptr noundef %12)
  store i32 -1, ptr %2, align 4
  store i32 1, ptr %6, align 4
  br label %23

14:                                               ; preds = %1
  %15 = load ptr, ptr %4, align 8, !tbaa !17
  %16 = call i32 @fseek(ptr noundef %15, i64 noundef 0, i32 noundef 2)
  %17 = load ptr, ptr %4, align 8, !tbaa !17
  %18 = call i64 @ftell(ptr noundef %17)
  %19 = trunc i64 %18 to i32
  store i32 %19, ptr %5, align 4, !tbaa !10
  %20 = load ptr, ptr %4, align 8, !tbaa !17
  %21 = call i32 @fclose(ptr noundef %20)
  %22 = load i32, ptr %5, align 4, !tbaa !10
  store i32 %22, ptr %2, align 4
  store i32 1, ptr %6, align 4
  br label %23

23:                                               ; preds = %14, %11
  call void @llvm.lifetime.end.p0(i64 4, ptr %5) #12
  call void @llvm.lifetime.end.p0(i64 8, ptr %4) #12
  %24 = load i32, ptr %2, align 4
  ret i32 %24
}

; Function Attrs: nounwind uwtable
define ptr @Abc_TruthStoreAlloc(i32 noundef %0, i32 noundef %1) #0 {
  %3 = alloca i32, align 4
  %4 = alloca i32, align 4
  %5 = alloca ptr, align 8
  %6 = alloca i32, align 4
  store i32 %0, ptr %3, align 4, !tbaa !10
  store i32 %1, ptr %4, align 4, !tbaa !10
  call void @llvm.lifetime.start.p0(i64 8, ptr %5) #12
  call void @llvm.lifetime.start.p0(i64 4, ptr %6) #12
  %7 = call noalias ptr @malloc(i64 noundef 24) #13
  store ptr %7, ptr %5, align 8, !tbaa !20
  %8 = load i32, ptr %3, align 4, !tbaa !10
  %9 = load ptr, ptr %5, align 8, !tbaa !20
  %10 = getelementptr inbounds nuw %struct.Abc_TtStore_t_, ptr %9, i32 0, i32 0
  store i32 %8, ptr %10, align 8, !tbaa !22
  %11 = load i32, ptr %3, align 4, !tbaa !10
  %12 = icmp slt i32 %11, 7
  br i1 %12, label %13, label %14

13:                                               ; preds = %2
  br label %18

14:                                               ; preds = %2
  %15 = load i32, ptr %3, align 4, !tbaa !10
  %16 = sub nsw i32 %15, 6
  %17 = shl i32 1, %16
  br label %18

18:                                               ; preds = %14, %13
  %19 = phi i32 [ 1, %13 ], [ %17, %14 ]
  %20 = load ptr, ptr %5, align 8, !tbaa !20
  %21 = getelementptr inbounds nuw %struct.Abc_TtStore_t_, ptr %20, i32 0, i32 1
  store i32 %19, ptr %21, align 4, !tbaa !25
  %22 = load i32, ptr %4, align 4, !tbaa !10
  %23 = load ptr, ptr %5, align 8, !tbaa !20
  %24 = getelementptr inbounds nuw %struct.Abc_TtStore_t_, ptr %23, i32 0, i32 2
  store i32 %22, ptr %24, align 8, !tbaa !26
  %25 = load ptr, ptr %5, align 8, !tbaa !20
  %26 = getelementptr inbounds nuw %struct.Abc_TtStore_t_, ptr %25, i32 0, i32 1
  %27 = load i32, ptr %26, align 4, !tbaa !25
  %28 = sext i32 %27 to i64
  %29 = mul i64 8, %28
  %30 = add i64 8, %29
  %31 = load ptr, ptr %5, align 8, !tbaa !20
  %32 = getelementptr inbounds nuw %struct.Abc_TtStore_t_, ptr %31, i32 0, i32 2
  %33 = load i32, ptr %32, align 8, !tbaa !26
  %34 = sext i32 %33 to i64
  %35 = mul i64 %30, %34
  %36 = call noalias ptr @malloc(i64 noundef %35) #13
  %37 = load ptr, ptr %5, align 8, !tbaa !20
  %38 = getelementptr inbounds nuw %struct.Abc_TtStore_t_, ptr %37, i32 0, i32 3
  store ptr %36, ptr %38, align 8, !tbaa !27
  %39 = load ptr, ptr %5, align 8, !tbaa !20
  %40 = getelementptr inbounds nuw %struct.Abc_TtStore_t_, ptr %39, i32 0, i32 3
  %41 = load ptr, ptr %40, align 8, !tbaa !27
  %42 = load ptr, ptr %5, align 8, !tbaa !20
  %43 = getelementptr inbounds nuw %struct.Abc_TtStore_t_, ptr %42, i32 0, i32 2
  %44 = load i32, ptr %43, align 8, !tbaa !26
  %45 = sext i32 %44 to i64
  %46 = getelementptr inbounds ptr, ptr %41, i64 %45
  %47 = load ptr, ptr %5, align 8, !tbaa !20
  %48 = getelementptr inbounds nuw %struct.Abc_TtStore_t_, ptr %47, i32 0, i32 3
  %49 = load ptr, ptr %48, align 8, !tbaa !27
  %50 = getelementptr inbounds ptr, ptr %49, i64 0
  store ptr %46, ptr %50, align 8, !tbaa !3
  %51 = load ptr, ptr %5, align 8, !tbaa !20
  %52 = getelementptr inbounds nuw %struct.Abc_TtStore_t_, ptr %51, i32 0, i32 3
  %53 = load ptr, ptr %52, align 8, !tbaa !27
  %54 = getelementptr inbounds ptr, ptr %53, i64 0
  %55 = load ptr, ptr %54, align 8, !tbaa !3
  %56 = load ptr, ptr %5, align 8, !tbaa !20
  %57 = getelementptr inbounds nuw %struct.Abc_TtStore_t_, ptr %56, i32 0, i32 1
  %58 = load i32, ptr %57, align 4, !tbaa !25
  %59 = sext i32 %58 to i64
  %60 = mul i64 8, %59
  %61 = load ptr, ptr %5, align 8, !tbaa !20
  %62 = getelementptr inbounds nuw %struct.Abc_TtStore_t_, ptr %61, i32 0, i32 2
  %63 = load i32, ptr %62, align 8, !tbaa !26
  %64 = sext i32 %63 to i64
  %65 = mul i64 %60, %64
  call void @llvm.memset.p0.i64(ptr align 8 %55, i8 0, i64 %65, i1 false)
  store i32 1, ptr %6, align 4, !tbaa !10
  br label %66

66:                                               ; preds = %92, %18
  %67 = load i32, ptr %6, align 4, !tbaa !10
  %68 = load ptr, ptr %5, align 8, !tbaa !20
  %69 = getelementptr inbounds nuw %struct.Abc_TtStore_t_, ptr %68, i32 0, i32 2
  %70 = load i32, ptr %69, align 8, !tbaa !26
  %71 = icmp slt i32 %67, %70
  br i1 %71, label %72, label %95

72:                                               ; preds = %66
  %73 = load ptr, ptr %5, align 8, !tbaa !20
  %74 = getelementptr inbounds nuw %struct.Abc_TtStore_t_, ptr %73, i32 0, i32 3
  %75 = load ptr, ptr %74, align 8, !tbaa !27
  %76 = load i32, ptr %6, align 4, !tbaa !10
  %77 = sub nsw i32 %76, 1
  %78 = sext i32 %77 to i64
  %79 = getelementptr inbounds ptr, ptr %75, i64 %78
  %80 = load ptr, ptr %79, align 8, !tbaa !3
  %81 = load ptr, ptr %5, align 8, !tbaa !20
  %82 = getelementptr inbounds nuw %struct.Abc_TtStore_t_, ptr %81, i32 0, i32 1
  %83 = load i32, ptr %82, align 4, !tbaa !25
  %84 = sext i32 %83 to i64
  %85 = getelementptr inbounds i64, ptr %80, i64 %84
  %86 = load ptr, ptr %5, align 8, !tbaa !20
  %87 = getelementptr inbounds nuw %struct.Abc_TtStore_t_, ptr %86, i32 0, i32 3
  %88 = load ptr, ptr %87, align 8, !tbaa !27
  %89 = load i32, ptr %6, align 4, !tbaa !10
  %90 = sext i32 %89 to i64
  %91 = getelementptr inbounds ptr, ptr %88, i64 %90
  store ptr %85, ptr %91, align 8, !tbaa !3
  br label %92

92:                                               ; preds = %72
  %93 = load i32, ptr %6, align 4, !tbaa !10
  %94 = add nsw i32 %93, 1
  store i32 %94, ptr %6, align 4, !tbaa !10
  br label %66, !llvm.loop !28

95:                                               ; preds = %66
  %96 = load ptr, ptr %5, align 8, !tbaa !20
  call void @llvm.lifetime.end.p0(i64 4, ptr %6) #12
  call void @llvm.lifetime.end.p0(i64 8, ptr %5) #12
  ret ptr %96
}

; Function Attrs: nounwind uwtable
define ptr @Abc_TtStoreLoad(ptr noundef %0, i32 noundef %1) #0 {
  %3 = alloca ptr, align 8
  %4 = alloca ptr, align 8
  %5 = alloca i32, align 4
  %6 = alloca ptr, align 8
  %7 = alloca i32, align 4
  %8 = alloca i32, align 4
  %9 = alloca i32, align 4
  %10 = alloca ptr, align 8
  %11 = alloca i32, align 4
  %12 = alloca i32, align 4
  %13 = alloca i32, align 4
  store ptr %0, ptr %4, align 8, !tbaa !8
  store i32 %1, ptr %5, align 4, !tbaa !10
  call void @llvm.lifetime.start.p0(i64 8, ptr %6) #12
  %14 = load i32, ptr %5, align 4, !tbaa !10
  %15 = icmp slt i32 %14, 0
  br i1 %15, label %16, label %36

16:                                               ; preds = %2
  call void @llvm.lifetime.start.p0(i64 4, ptr %7) #12
  call void @llvm.lifetime.start.p0(i64 4, ptr %8) #12
  %17 = load ptr, ptr %4, align 8, !tbaa !8
  call void @Abc_TruthGetParams(ptr noundef %17, ptr noundef %7, ptr noundef %8)
  %18 = load i32, ptr %7, align 4, !tbaa !10
  %19 = icmp slt i32 %18, 2
  br i1 %19, label %26, label %20

20:                                               ; preds = %16
  %21 = load i32, ptr %7, align 4, !tbaa !10
  %22 = icmp sgt i32 %21, 16
  br i1 %22, label %26, label %23

23:                                               ; preds = %20
  %24 = load i32, ptr %8, align 4, !tbaa !10
  %25 = icmp eq i32 %24, 0
  br i1 %25, label %26, label %27

26:                                               ; preds = %23, %20, %16
  store ptr null, ptr %3, align 8
  store i32 1, ptr %9, align 4
  br label %33

27:                                               ; preds = %23
  %28 = load i32, ptr %7, align 4, !tbaa !10
  %29 = load i32, ptr %8, align 4, !tbaa !10
  %30 = call ptr @Abc_TruthStoreAlloc(i32 noundef %28, i32 noundef %29)
  store ptr %30, ptr %6, align 8, !tbaa !20
  %31 = load ptr, ptr %4, align 8, !tbaa !8
  %32 = load ptr, ptr %6, align 8, !tbaa !20
  call void @Abc_TruthStoreRead(ptr noundef %31, ptr noundef %32)
  store i32 0, ptr %9, align 4
  br label %33

33:                                               ; preds = %27, %26
  call void @llvm.lifetime.end.p0(i64 4, ptr %8) #12
  call void @llvm.lifetime.end.p0(i64 4, ptr %7) #12
  %34 = load i32, ptr %9, align 4
  switch i32 %34, label %71 [
    i32 0, label %35
  ]

35:                                               ; preds = %33
  br label %69

36:                                               ; preds = %2
  call void @llvm.lifetime.start.p0(i64 8, ptr %10) #12
  call void @llvm.lifetime.start.p0(i64 4, ptr %11) #12
  %37 = load ptr, ptr %4, align 8, !tbaa !8
  %38 = call i32 @Abc_FileSize(ptr noundef %37)
  store i32 %38, ptr %11, align 4, !tbaa !10
  call void @llvm.lifetime.start.p0(i64 4, ptr %12) #12
  %39 = load i32, ptr %5, align 4, !tbaa !10
  %40 = sub nsw i32 %39, 3
  %41 = shl i32 1, %40
  store i32 %41, ptr %12, align 4, !tbaa !10
  call void @llvm.lifetime.start.p0(i64 4, ptr %13) #12
  %42 = load i32, ptr %11, align 4, !tbaa !10
  %43 = load i32, ptr %12, align 4, !tbaa !10
  %44 = sdiv i32 %42, %43
  store i32 %44, ptr %13, align 4, !tbaa !10
  %45 = load i32, ptr %11, align 4, !tbaa !10
  %46 = icmp eq i32 %45, -1
  br i1 %46, label %47, label %48

47:                                               ; preds = %36
  store ptr null, ptr %3, align 8
  store i32 1, ptr %9, align 4
  br label %66

48:                                               ; preds = %36
  %49 = load i32, ptr %11, align 4, !tbaa !10
  %50 = load i32, ptr %12, align 4, !tbaa !10
  %51 = srem i32 %49, %50
  %52 = icmp ne i32 %51, 0
  br i1 %52, label %53, label %59

53:                                               ; preds = %48
  %54 = load i32, ptr %11, align 4, !tbaa !10
  %55 = load i32, ptr %12, align 4, !tbaa !10
  %56 = load i32, ptr %11, align 4, !tbaa !10
  %57 = load i32, ptr %12, align 4, !tbaa !10
  %58 = srem i32 %56, %57
  call void (i32, ptr, ...) @Abc_Print(i32 noundef 0, ptr noundef @.str.8, i32 noundef %54, i32 noundef %55, i32 noundef %58)
  br label %59

59:                                               ; preds = %53, %48
  %60 = load ptr, ptr %4, align 8, !tbaa !8
  %61 = call ptr @Abc_FileRead(ptr noundef %60)
  store ptr %61, ptr %10, align 8, !tbaa !8
  %62 = load i32, ptr %5, align 4, !tbaa !10
  %63 = load i32, ptr %13, align 4, !tbaa !10
  %64 = load ptr, ptr %10, align 8, !tbaa !8
  %65 = call ptr @Abc_TruthStoreAlloc2(i32 noundef %62, i32 noundef %63, ptr noundef %64)
  store ptr %65, ptr %6, align 8, !tbaa !20
  store i32 0, ptr %9, align 4
  br label %66

66:                                               ; preds = %59, %47
  call void @llvm.lifetime.end.p0(i64 4, ptr %13) #12
  call void @llvm.lifetime.end.p0(i64 4, ptr %12) #12
  call void @llvm.lifetime.end.p0(i64 4, ptr %11) #12
  call void @llvm.lifetime.end.p0(i64 8, ptr %10) #12
  %67 = load i32, ptr %9, align 4
  switch i32 %67, label %71 [
    i32 0, label %68
  ]

68:                                               ; preds = %66
  br label %69

69:                                               ; preds = %68, %35
  %70 = load ptr, ptr %6, align 8, !tbaa !20
  store ptr %70, ptr %3, align 8
  store i32 1, ptr %9, align 4
  br label %71

71:                                               ; preds = %69, %66, %33
  call void @llvm.lifetime.end.p0(i64 8, ptr %6) #12
  %72 = load ptr, ptr %3, align 8
  ret ptr %72
}