; Function Attrs: nounwind uwtable
define noalias noundef ptr @Abc_TtStoreLoad(ptr noundef %0, i32 noundef %1) local_unnamed_addr #9 {
  %3 = alloca i32, align 4
  %4 = alloca i32, align 4
  %5 = icmp slt i32 %1, 0
  br i1 %5, label %6, label %35

6:                                                ; preds = %2
  call void @llvm.lifetime.start.p0(i64 4, ptr nonnull %3) #21
  call void @llvm.lifetime.start.p0(i64 4, ptr nonnull %4) #21
  call void @Abc_TruthGetParams(ptr noundef %0, ptr noundef nonnull %3, ptr noundef nonnull %4)
  %7 = load i32, ptr %3, align 4, !tbaa !23
  %8 = add i32 %7, -2
  %or.cond = icmp ult i32 %8, 15
  %9 = load i32, ptr %4, align 4
  %10 = icmp ne i32 %9, 0
  %or.cond4.not = select i1 %or.cond, i1 %10, i1 false
  br i1 %or.cond4.not, label %11, label %.thread

.thread:                                          ; preds = %6
  call void @llvm.lifetime.end.p0(i64 4, ptr nonnull %4) #21
  call void @llvm.lifetime.end.p0(i64 4, ptr nonnull %3) #21
  br label %Abc_TruthStoreAlloc2.exit.thread

11:                                               ; preds = %6
  %12 = call noalias dereferenceable_or_null(24) ptr @malloc(i64 noundef 24) #22
  store i32 %7, ptr %12, align 8, !tbaa !11
  %13 = icmp samesign ult i32 %7, 7
  %14 = add nsw i32 %7, -6
  %15 = shl nuw nsw i32 1, %14
  %16 = select i1 %13, i32 1, i32 %15
  %17 = getelementptr inbounds nuw i8, ptr %12, i64 4
  store i32 %16, ptr %17, align 4, !tbaa !16
  %18 = getelementptr inbounds nuw i8, ptr %12, i64 8
  store i32 %9, ptr %18, align 8, !tbaa !17
  %19 = zext nneg i32 %16 to i64
  %20 = shl nuw nsw i64 %19, 3
  %21 = add nuw nsw i64 %20, 8
  %22 = sext i32 %9 to i64
  %23 = mul i64 %21, %22
  %24 = call noalias ptr @malloc(i64 noundef %23) #22
  %25 = getelementptr inbounds nuw i8, ptr %12, i64 16
  store ptr %24, ptr %25, align 8, !tbaa !18
  %26 = getelementptr inbounds ptr, ptr %24, i64 %22
  store ptr %26, ptr %24, align 8, !tbaa !19
  %27 = select i1 %13, i32 0, i32 %14
  %28 = zext i32 %27 to i64
  %29 = add nuw nsw i64 %28, 3
  %30 = shl i64 %22, %29
  call void @llvm.memset.p0.i64(ptr nonnull align 8 %26, i8 0, i64 %30, i1 false)
  %31 = icmp sgt i32 %9, 1
  br i1 %31, label %.lr.ph.preheader.i, label %.thread43

.thread43:                                        ; preds = %11
  call void @Abc_TruthStoreRead(ptr noundef %0, ptr noundef nonnull %12)
  call void @llvm.lifetime.end.p0(i64 4, ptr nonnull %4) #21
  call void @llvm.lifetime.end.p0(i64 4, ptr nonnull %3) #21
  br label %Abc_TruthStoreAlloc2.exit.thread

.lr.ph.preheader.i:                               ; preds = %11
  %wide.trip.count.i = zext nneg i32 %9 to i64
  %load_initial = load ptr, ptr %24, align 8
  br label %.lr.ph.i

.lr.ph.i:                                         ; preds = %.lr.ph.i, %.lr.ph.preheader.i
  %store_forwarded = phi ptr [ %load_initial, %.lr.ph.preheader.i ], [ %33, %.lr.ph.i ]
  %indvars.iv.i = phi i64 [ 1, %.lr.ph.preheader.i ], [ %indvars.iv.next.i, %.lr.ph.i ]
  %32 = getelementptr ptr, ptr %24, i64 %indvars.iv.i
  %33 = getelementptr inbounds nuw i64, ptr %store_forwarded, i64 %19
  store ptr %33, ptr %32, align 8, !tbaa !19
  %indvars.iv.next.i = add nuw nsw i64 %indvars.iv.i, 1
  %exitcond.not.i = icmp eq i64 %indvars.iv.next.i, %wide.trip.count.i
  br i1 %exitcond.not.i, label %34, label %.lr.ph.i, !llvm.loop !21

34:                                               ; preds = %.lr.ph.i
  call void @Abc_TruthStoreRead(ptr noundef %0, ptr noundef nonnull %12)
  call void @llvm.lifetime.end.p0(i64 4, ptr nonnull %4) #21
  call void @llvm.lifetime.end.p0(i64 4, ptr nonnull %3) #21
  br label %Abc_TruthStoreAlloc2.exit.thread

35:                                               ; preds = %2
  %36 = tail call noalias ptr @fopen(ptr noundef %0, ptr noundef nonnull @.str)
  %37 = icmp eq ptr %36, null
  br i1 %37, label %Abc_FileSize.exit.thread, label %Abc_FileSize.exit

Abc_FileSize.exit.thread:                         ; preds = %35
  %38 = tail call i32 (ptr, ...) @printf(ptr noundef nonnull dereferenceable(1) @.str.1, ptr noundef %0)
  br label %Abc_TruthStoreAlloc2.exit.thread

Abc_FileSize.exit:                                ; preds = %35
  %39 = tail call i32 @fseek(ptr noundef nonnull %36, i64 noundef 0, i32 noundef 2)
  %40 = tail call i64 @ftell(ptr noundef nonnull %36)
  %41 = trunc i64 %40 to i32
  %42 = tail call i32 @fclose(ptr noundef nonnull %36)
  %43 = add nsw i32 %1, -3
  %44 = shl nuw i32 1, %43
  %45 = sdiv i32 %41, %44
  %46 = srem i32 %41, %44
  %.not35 = icmp eq i32 %41, -1
  br i1 %.not35, label %Abc_TruthStoreAlloc2.exit.thread, label %47

47:                                               ; preds = %Abc_FileSize.exit
  %.not = icmp eq i32 %46, 0
  br i1 %.not, label %49, label %48

48:                                               ; preds = %47
  tail call void (i32, ptr, ...) @Abc_Print(i32 noundef 0, ptr noundef nonnull @.str.8, i32 noundef %41, i32 noundef %44, i32 noundef %46)
  br label %49

49:                                               ; preds = %48, %47
  %50 = tail call ptr @Abc_FileRead(ptr noundef %0)
  %51 = tail call noalias dereferenceable_or_null(24) ptr @malloc(i64 noundef 24) #22
  store i32 %1, ptr %51, align 8, !tbaa !11
  %52 = icmp samesign ult i32 %1, 7
  %53 = add nsw i32 %1, -6
  %54 = shl nuw i32 1, %53
  %55 = select i1 %52, i32 1, i32 %54
  %56 = getelementptr inbounds nuw i8, ptr %51, i64 4
  store i32 %55, ptr %56, align 4, !tbaa !16
  %57 = getelementptr inbounds nuw i8, ptr %51, i64 8
  store i32 %45, ptr %57, align 8, !tbaa !17
  %58 = sext i32 %45 to i64
  %59 = shl nsw i64 %58, 3
  %60 = tail call noalias ptr @malloc(i64 noundef %59) #22
  %61 = getelementptr inbounds nuw i8, ptr %51, i64 16
  store ptr %60, ptr %61, align 8, !tbaa !18
  store ptr %50, ptr %60, align 8, !tbaa !19
  %62 = icmp sgt i32 %45, 1
  br i1 %62, label %.lr.ph.i37, label %Abc_TruthStoreAlloc2.exit.thread

.lr.ph.i37:                                       ; preds = %49
  %63 = sext i32 %55 to i64
  %wide.trip.count.i38 = zext nneg i32 %45 to i64
  %load_initial52 = load ptr, ptr %60, align 8
  br label %64

64:                                               ; preds = %64, %.lr.ph.i37
  %store_forwarded53 = phi ptr [ %load_initial52, %.lr.ph.i37 ], [ %66, %64 ]
  %indvars.iv.i39 = phi i64 [ 1, %.lr.ph.i37 ], [ %indvars.iv.next.i40, %64 ]
  %65 = getelementptr ptr, ptr %60, i64 %indvars.iv.i39
  %66 = getelementptr inbounds i64, ptr %store_forwarded53, i64 %63
  store ptr %66, ptr %65, align 8, !tbaa !19
  %indvars.iv.next.i40 = add nuw nsw i64 %indvars.iv.i39, 1
  %exitcond.not.i41 = icmp eq i64 %indvars.iv.next.i40, %wide.trip.count.i38
  br i1 %exitcond.not.i41, label %Abc_TruthStoreAlloc2.exit.thread, label %64, !llvm.loop !22

Abc_TruthStoreAlloc2.exit.thread:                 ; preds = %64, %.thread43, %49, %34, %Abc_FileSize.exit.thread, %Abc_FileSize.exit, %.thread
  %.1 = phi ptr [ null, %.thread ], [ null, %Abc_FileSize.exit ], [ null, %Abc_FileSize.exit.thread ], [ %12, %34 ], [ %12, %.thread43 ], [ %51, %49 ], [ %51, %64 ]
  ret ptr %.1
}